; Function Attrs: nounwind sspstrong uwtable
define internal range(i64 1, 0) i64 @rb_struct_hash(i64 noundef %0) #0 {
  %2 = tail call i64 @rb_obj_class(i64 noundef %0) #19
  %3 = tail call i64 @rb_hash(i64 noundef %2) #19
  %4 = tail call i64 @rb_hash_start(i64 noundef %3) #19
  %5 = inttoptr i64 %0 to ptr
  %6 = load i64, ptr %5, align 8, !tbaa !11
  %7 = and i64 %6, 1040384
  %.not.i = icmp eq i64 %7, 0
  br i1 %.not.i, label %11, label %8

8:                                                ; preds = %1
  %9 = lshr i64 %6, 13
  %10 = and i64 %9, 127
  br label %internal_RSTRUCT_LEN.exit

11:                                               ; preds = %1
  %12 = getelementptr inbounds nuw i8, ptr %5, i64 16
  %13 = load i64, ptr %12, align 8, !tbaa !13
  br label %internal_RSTRUCT_LEN.exit

internal_RSTRUCT_LEN.exit:                        ; preds = %8, %11
  %.0.i = phi i64 [ %10, %8 ], [ %13, %11 ]
  %14 = icmp sgt i64 %.0.i, 0
  br i1 %14, label %.lr.ph, label %._crit_edge

.lr.ph:                                           ; preds = %internal_RSTRUCT_LEN.exit
  %15 = getelementptr inbounds nuw i8, ptr %5, i64 16
  %16 = getelementptr inbounds nuw i8, ptr %5, i64 24
  br label %17

17:                                               ; preds = %.lr.ph, %rb_num2long_inline.exit
  %.016 = phi i64 [ 0, %.lr.ph ], [ %31, %rb_num2long_inline.exit ]
  %.01115 = phi i64 [ %4, %.lr.ph ], [ %30, %rb_num2long_inline.exit ]
  %18 = load i64, ptr %5, align 8, !tbaa !11
  %19 = and i64 %18, 1040384
  %.not.i.i = icmp eq i64 %19, 0
  br i1 %.not.i.i, label %20, label %internal_RSTRUCT_GET.exit

20:                                               ; preds = %17
  %21 = load ptr, ptr %16, align 8, !tbaa !13
  br label %internal_RSTRUCT_GET.exit

internal_RSTRUCT_GET.exit:                        ; preds = %17, %20
  %.0.i.i = phi ptr [ %21, %20 ], [ %15, %17 ]
  %22 = getelementptr i64, ptr %.0.i.i, i64 %.016
  %23 = load i64, ptr %22, align 8, !tbaa !7
  %24 = tail call i64 @rb_hash(i64 noundef %23) #19
  %25 = and i64 %24, 1
  %.not.i12 = icmp eq i64 %25, 0
  br i1 %.not.i12, label %28, label %26

26:                                               ; preds = %internal_RSTRUCT_GET.exit
  %27 = ashr i64 %24, 1
  br label %rb_num2long_inline.exit

28:                                               ; preds = %internal_RSTRUCT_GET.exit
  %29 = tail call i64 @rb_num2long(i64 noundef %24) #19
  br label %rb_num2long_inline.exit

rb_num2long_inline.exit:                          ; preds = %26, %28
  %.0.i13 = phi i64 [ %27, %26 ], [ %29, %28 ]
  %30 = tail call i64 @rb_st_hash_uint(i64 noundef %.01115, i64 noundef %.0.i13) #27
  %31 = add nuw nsw i64 %.016, 1
  %exitcond.not = icmp eq i64 %31, %.0.i
  br i1 %exitcond.not, label %._crit_edge, label %17, !llvm.loop !45

._crit_edge:                                      ; preds = %rb_num2long_inline.exit, %internal_RSTRUCT_LEN.exit
  %.011.lcssa = phi i64 [ %4, %internal_RSTRUCT_LEN.exit ], [ %30, %rb_num2long_inline.exit ]
  %32 = tail call i64 @rb_st_hash_end(i64 noundef %.011.lcssa) #27
  %33 = and i64 %32, 4611686018427387903
  %34 = icmp slt i64 %32, 0
  %masksel.i = select i1 %34, i64 -4611686018427387904, i64 0
  %.0.i14 = or disjoint i64 %masksel.i, %33
  %35 = shl nsw i64 %.0.i14, 1
  %36 = or disjoint i64 %35, 1
  ret i64 %36
}